Certificate:
    Data:
        Version: 3 (0x2)
        Serial Number: 3 (0x3)
    Signature Algorithm: sha256WithRSAEncryption
        Issuer: C=BA, ST=Republika Srpska, L=Banja Luka, OU=Katedra za racunarstvo i informatiku, CN=CA
        Validity
            Not Before: Jun  8 00:33:00 2018 GMT
            Not After : Dec  8 00:33:00 2018 GMT
        Subject: C=BA, ST=RS, L=BL, O=ETF, OU=KRI, CN=branko
        Subject Public Key Info:
            Public Key Algorithm: rsaEncryption
                Public-Key: (2048 bit)
                Modulus:
                    00:a7:54:0b:9e:aa:13:2e:c2:33:f8:95:c4:ca:5f:
                    b9:66:70:95:01:04:e5:de:b9:bf:64:58:34:d1:3a:
                    5f:29:79:ab:27:0c:43:55:dc:7d:ce:40:cb:2e:f9:
                    93:27:6d:5a:85:f8:79:d3:d4:ab:08:d4:1c:6a:ac:
                    92:ba:6b:49:e3:96:23:e4:1c:be:0b:59:c5:5a:a5:
                    b5:70:96:f4:a6:93:e6:51:24:1b:79:9e:fe:1b:6c:
                    71:ac:bc:d3:92:d8:a3:37:75:c3:f5:62:ea:06:54:
                    38:c4:da:a4:cf:2e:5e:da:1c:2d:36:2f:31:32:d4:
                    e3:db:a0:58:a3:f0:97:08:b4:b7:21:51:a3:d0:26:
                    51:c5:d5:ae:c7:11:dd:ec:b7:9d:8b:ad:47:b1:a7:
                    85:26:f3:2e:0f:2e:34:d6:ff:99:6a:0e:15:a6:61:
                    6c:97:73:d9:2b:14:33:5b:f9:7d:13:aa:62:e6:71:
                    07:da:df:63:c2:14:b8:0d:67:30:f0:fe:b6:06:00:
                    1f:37:7e:53:bd:8f:b9:34:4c:77:f7:79:79:48:71:
                    82:a0:cd:be:f0:e2:c3:e6:04:76:89:3e:3d:54:98:
                    76:bf:7c:d0:47:a5:95:71:fb:6c:25:23:7d:59:68:
                    38:be:70:0d:31:17:31:be:fa:1a:34:24:17:34:cf:
                    79:45
                Exponent: 65537 (0x10001)
        X509v3 extensions:
            X509v3 Basic Constraints: 
                CA:FALSE
            X509v3 Subject Key Identifier: 
                03:68:C1:04:60:39:EE:4B:19:63:82:74:4C:B4:70:C9:B9:0A:13:D6
            X509v3 Authority Key Identifier: 
                DirName:/C=BA/ST=Republika Srpska/L=Banja Luka/OU=Katedra za racunarstvo i informatiku/CN=CA
                serial:01

    Signature Algorithm: sha256WithRSAEncryption
         46:f3:c0:87:84:46:94:81:1f:73:8c:e7:0d:45:aa:8f:62:88:
         fb:4d:cc:f8:22:17:2f:0e:7f:46:58:c6:6e:29:cd:9d:fc:c5:
         f7:d3:85:d6:5b:d6:8b:ca:50:07:40:82:12:4f:55:03:6f:c4:
         59:ea:85:0e:1a:ef:32:b2:83:9d:4e:05:0d:3a:23:bb:ad:98:
         85:f0:e6:9a:80:80:c7:47:5c:8e:62:11:44:31:6a:db:be:a5:
         9e:9c:41:e5:3c:29:b1:65:f6:0d:f2:68:e2:42:e4:b8:32:3e:
         72:63:8b:7c:ee:5d:36:77:bd:4e:6c:9e:a8:26:2c:f6:00:92:
         70:b4:12:ca:be:ad:10:17:43:e6:0a:c7:e4:6b:a6:24:b5:82:
         cd:f3:12:25:b0:5d:a6:dd:5b:61:2a:e0:a6:28:d1:70:ef:6e:
         7f:84:82:43:94:8a:ac:de:fe:7e:c5:e5:0f:9a:85:36:3c:bd:
         9c:e6:7e:a2:55:88:0f:e1:cd:be:c8:5d:37:a4:8e:6a:ba:e6:
         35:5a:33:53:20:31:33:bb:d1:68:7c:82:a2:4f:5e:b7:df:c8:
         7a:b4:a6:cf:2b:fe:91:2b:1b:e3:68:c0:ff:25:c4:aa:0e:c0:
         57:7b:6a:8d:c3:05:92:1f:5e:e2:08:0c:07:25:c4:76:a1:ae:
         02:c8:34:6d
-----BEGIN CERTIFICATE-----
MIIEBjCCAu6gAwIBAgIBAzANBgkqhkiG9w0BAQsFADB5MQswCQYDVQQGEwJCQTEZ
MBcGA1UECBMQUmVwdWJsaWthIFNycHNrYTETMBEGA1UEBxMKQmFuamEgTHVrYTEt
MCsGA1UECxMkS2F0ZWRyYSB6YSByYWN1bmFyc3R2byBpIGluZm9ybWF0aWt1MQsw
CQYDVQQDEwJDQTAeFw0xODA2MDgwMDMzMDBaFw0xODEyMDgwMDMzMDBaMFQxCzAJ
BgNVBAYTAkJBMQswCQYDVQQIEwJSUzELMAkGA1UEBxMCQkwxDDAKBgNVBAoTA0VU
RjEMMAoGA1UECxMDS1JJMQ8wDQYDVQQDEwZicmFua28wggEiMA0GCSqGSIb3DQEB
AQUAA4IBDwAwggEKAoIBAQCnVAueqhMuwjP4lcTKX7lmcJUBBOXeub9kWDTROl8p
easnDENV3H3OQMsu+ZMnbVqF+HnT1KsI1BxqrJK6a0njliPkHL4LWcVapbVwlvSm
k+ZRJBt5nv4bbHGsvNOS2KM3dcP1YuoGVDjE2qTPLl7aHC02LzEy1OPboFij8JcI
tLchUaPQJlHF1a7HEd3st52LrUexp4Um8y4PLjTW/5lqDhWmYWyXc9krFDNb+X0T
qmLmcQfa32PCFLgNZzDw/rYGAB83flO9j7k0THf3eXlIcYKgzb7w4sPmBHaJPj1U
mHa/fNBHpZVx+2wlI31ZaDi+cA0xFzG++ho0JBc0z3lFAgMBAAGjgb0wgbowCQYD
VR0TBAIwADAdBgNVHQ4EFgQUA2jBBGA57ksZY4J0TLRwybkKE9YwgY0GA1UdIwSB
hTCBgqF9pHsweTELMAkGA1UEBhMCQkExGTAXBgNVBAgTEFJlcHVibGlrYSBTcnBz
a2ExEzARBgNVBAcTCkJhbmphIEx1a2ExLTArBgNVBAsTJEthdGVkcmEgemEgcmFj
dW5hcnN0dm8gaSBpbmZvcm1hdGlrdTELMAkGA1UEAxMCQ0GCAQEwDQYJKoZIhvcN
AQELBQADggEBAEbzwIeERpSBH3OM5w1Fqo9iiPtNzPgiFy8Of0ZYxm4pzZ38xffT
hdZb1ovKUAdAghJPVQNvxFnqhQ4a7zKyg51OBQ06I7utmIXw5pqAgMdHXI5iEUQx
atu+pZ6cQeU8KbFl9g3yaOJC5LgyPnJji3zuXTZ3vU5snqgmLPYAknC0Esq+rRAX
Q+YKx+RrpiS1gs3zEiWwXabdW2Eq4KYo0XDvbn+EgkOUiqze/n7F5Q+ahTY8vZzm
fqJViA/hzb7IXTekjmq65jVaM1MgMTO70Wh8gqJPXrffyHq0ps8r/pErG+NowP8l
xKoOwFd7ao3DBZIfXuIIDAclxHahrgLING0=
-----END CERTIFICATE-----
