Certificate:
    Data:
        Version: 3 (0x2)
        Serial Number: 2 (0x2)
    Signature Algorithm: sha256WithRSAEncryption
        Issuer: C=BA, ST=Republika Srpska, L=Banja Luka, OU=Katedra za racunarstvo i informatiku, CN=CA
        Validity
            Not Before: Jun  8 00:32:00 2018 GMT
            Not After : Dec  8 00:32:00 2018 GMT
        Subject: C=BA, ST=RS, L=BL, O=ETF, OU=KRI, CN=milan
        Subject Public Key Info:
            Public Key Algorithm: rsaEncryption
                Public-Key: (2048 bit)
                Modulus:
                    00:b5:1e:c1:20:2c:ac:06:65:67:ae:1b:bb:6a:95:
                    3d:f8:46:fc:8a:e6:cf:7b:32:a4:e2:9e:77:94:27:
                    2d:2a:2f:c4:3b:b9:70:14:c2:51:27:e5:9b:03:2c:
                    96:0a:55:cc:02:f1:53:c3:2b:a3:c0:82:40:14:4e:
                    61:ff:58:29:db:ce:03:23:0b:3e:fc:8b:12:94:58:
                    61:fa:b0:4e:30:c5:ed:c1:6d:a3:9e:1a:e0:3e:54:
                    bc:34:e5:11:87:97:e3:88:bd:1a:06:b9:89:a6:43:
                    c1:29:bf:f0:3e:09:0a:a9:34:78:b1:8e:a0:8f:ee:
                    40:34:03:72:2f:9a:d3:5d:16:c1:67:6f:e0:0b:df:
                    92:e3:6b:28:60:3b:cc:ec:09:8e:3a:0d:e1:f0:a4:
                    9a:41:5a:4a:07:36:bb:3c:17:ec:05:68:6d:45:5a:
                    eb:c8:1a:6a:50:cd:b5:cf:ef:78:16:f6:51:31:51:
                    aa:6d:57:03:ca:65:35:4f:2b:42:6f:5b:40:09:ce:
                    e0:69:b4:f3:3e:63:d1:8d:6b:71:f1:0d:e0:aa:c0:
                    02:43:41:f1:b0:bb:06:83:e6:d9:c0:d4:2d:64:6c:
                    35:1a:d9:b2:1c:ce:c9:ac:c9:80:ef:cc:48:b3:85:
                    34:41:5a:45:75:fd:43:53:c0:6c:2e:74:69:2a:36:
                    85:3b
                Exponent: 65537 (0x10001)
        X509v3 extensions:
            X509v3 Basic Constraints: 
                CA:FALSE
            X509v3 Subject Key Identifier: 
                FB:2E:A0:82:EF:B4:A1:FD:4D:01:39:90:89:6B:85:8B:41:81:0B:04
            X509v3 Authority Key Identifier: 
                DirName:/C=BA/ST=Republika Srpska/L=Banja Luka/OU=Katedra za racunarstvo i informatiku/CN=CA
                serial:01

    Signature Algorithm: sha256WithRSAEncryption
         2a:58:a4:7d:14:50:f2:87:d0:24:cd:3d:0c:34:97:fb:1f:2f:
         ec:0c:1f:f1:96:a1:e4:41:a7:39:37:cc:90:64:5c:fa:d1:d6:
         9d:6c:57:ba:77:57:10:ae:e8:b1:01:19:b5:89:98:46:4c:72:
         44:0f:04:6b:9d:17:a6:96:a4:2d:c9:06:7e:bc:04:3a:07:44:
         e4:2e:73:6d:3e:bf:c2:7c:55:76:27:00:db:45:ad:85:fe:be:
         49:8a:f8:8d:e5:15:f6:7f:a9:d4:ae:34:68:05:0e:8f:ac:46:
         8e:02:b5:8c:32:fb:29:99:89:d9:de:14:bc:39:17:82:25:14:
         cb:01:42:4a:e2:54:3d:3c:85:c4:b1:db:da:39:19:0e:4d:fc:
         9a:b7:e4:70:cc:ae:79:99:c7:0a:aa:0f:6a:65:49:6a:3b:a4:
         72:e2:c1:d4:9f:d4:68:9f:60:fc:ef:5d:03:60:8b:65:b2:2c:
         b6:da:c1:72:f1:b8:9c:e4:af:91:91:5b:2b:63:cc:90:5d:42:
         d3:8d:d5:ff:56:9d:5d:b7:82:58:1e:2f:aa:9d:99:04:02:94:
         23:bd:1b:6f:b5:6c:6d:b4:c1:b7:5a:e9:68:e5:82:3c:d1:c7:
         35:6f:6d:2c:29:73:b1:24:f7:dd:67:16:7a:a2:e3:af:45:af:
         fd:d7:20:d5
-----BEGIN CERTIFICATE-----
MIIEBTCCAu2gAwIBAgIBAjANBgkqhkiG9w0BAQsFADB5MQswCQYDVQQGEwJCQTEZ
MBcGA1UECBMQUmVwdWJsaWthIFNycHNrYTETMBEGA1UEBxMKQmFuamEgTHVrYTEt
MCsGA1UECxMkS2F0ZWRyYSB6YSByYWN1bmFyc3R2byBpIGluZm9ybWF0aWt1MQsw
CQYDVQQDEwJDQTAeFw0xODA2MDgwMDMyMDBaFw0xODEyMDgwMDMyMDBaMFMxCzAJ
BgNVBAYTAkJBMQswCQYDVQQIEwJSUzELMAkGA1UEBxMCQkwxDDAKBgNVBAoTA0VU
RjEMMAoGA1UECxMDS1JJMQ4wDAYDVQQDEwVtaWxhbjCCASIwDQYJKoZIhvcNAQEB
BQADggEPADCCAQoCggEBALUewSAsrAZlZ64bu2qVPfhG/Irmz3sypOKed5QnLSov
xDu5cBTCUSflmwMslgpVzALxU8Mro8CCQBROYf9YKdvOAyMLPvyLEpRYYfqwTjDF
7cFto54a4D5UvDTlEYeX44i9Gga5iaZDwSm/8D4JCqk0eLGOoI/uQDQDci+a010W
wWdv4AvfkuNrKGA7zOwJjjoN4fCkmkFaSgc2uzwX7AVobUVa68gaalDNtc/veBb2
UTFRqm1XA8plNU8rQm9bQAnO4Gm08z5j0Y1rcfEN4KrAAkNB8bC7BoPm2cDULWRs
NRrZshzOyazJgO/MSLOFNEFaRXX9Q1PAbC50aSo2hTsCAwEAAaOBvTCBujAJBgNV
HRMEAjAAMB0GA1UdDgQWBBT7LqCC77Sh/U0BOZCJa4WLQYELBDCBjQYDVR0jBIGF
MIGCoX2kezB5MQswCQYDVQQGEwJCQTEZMBcGA1UECBMQUmVwdWJsaWthIFNycHNr
YTETMBEGA1UEBxMKQmFuamEgTHVrYTEtMCsGA1UECxMkS2F0ZWRyYSB6YSByYWN1
bmFyc3R2byBpIGluZm9ybWF0aWt1MQswCQYDVQQDEwJDQYIBATANBgkqhkiG9w0B
AQsFAAOCAQEAKlikfRRQ8ofQJM09DDSX+x8v7Awf8Zah5EGnOTfMkGRc+tHWnWxX
undXEK7osQEZtYmYRkxyRA8Ea50XppakLckGfrwEOgdE5C5zbT6/wnxVdicA20Wt
hf6+SYr4jeUV9n+p1K40aAUOj6xGjgK1jDL7KZmJ2d4UvDkXgiUUywFCSuJUPTyF
xLHb2jkZDk38mrfkcMyueZnHCqoPamVJajukcuLB1J/UaJ9g/O9dA2CLZbIsttrB
cvG4nOSvkZFbK2PMkF1C043V/1adXbeCWB4vqp2ZBAKUI70bb7VsbbTBt1rpaOWC
PNHHNW9tLClzsST33WcWeqLjr0Wv/dcg1Q==
-----END CERTIFICATE-----
