Certificate:
    Data:
        Version: 3 (0x2)
        Serial Number: 4 (0x4)
    Signature Algorithm: sha256WithRSAEncryption
        Issuer: C=BA, ST=Republika Srpska, L=Banja Luka, OU=Katedra za racunarstvo i informatiku, CN=CA
        Validity
            Not Before: Jun  8 00:33:00 2018 GMT
            Not After : Dec  8 00:33:00 2018 GMT
        Subject: C=BA, ST=RS, L=BL, O=ETF, OU=KRI, CN=mujo
        Subject Public Key Info:
            Public Key Algorithm: rsaEncryption
                Public-Key: (2048 bit)
                Modulus:
                    00:ac:d2:fe:51:be:cd:59:62:a4:89:6f:cb:87:52:
                    37:34:0a:ec:7a:3e:03:61:40:7f:5a:ad:64:ae:46:
                    51:d4:21:16:76:b1:62:41:5f:f8:e5:d9:1e:ed:1a:
                    f7:5c:74:0b:e1:89:77:99:e7:1c:c6:b4:92:4e:23:
                    86:10:2f:8c:e0:49:6d:f0:4f:14:c5:6e:f7:ae:f7:
                    fc:8f:3e:52:f0:4d:4e:57:ad:4f:ed:0c:58:65:94:
                    cb:ae:13:5f:cc:0c:e7:2e:c3:7c:68:e1:dd:73:93:
                    1e:4a:ca:14:32:cc:6f:62:0a:96:ac:f2:4f:34:62:
                    33:49:79:de:35:02:f9:a5:ed:59:a1:cb:c1:af:94:
                    9d:2e:49:f2:eb:49:74:82:78:6f:d5:ee:d0:7c:96:
                    e7:12:ae:25:97:d4:b9:aa:18:8a:a0:d7:0e:b8:b5:
                    18:b2:e8:59:b0:94:d6:bc:55:ad:b7:f8:42:e8:3b:
                    e5:7f:7a:cd:be:21:8f:05:57:01:18:1e:32:1d:a8:
                    70:6d:48:14:a9:28:4f:57:cd:b9:80:03:6b:78:c5:
                    59:00:88:91:60:7b:76:d9:65:25:43:28:d7:63:98:
                    dd:77:b7:b9:b5:38:14:c7:d8:2a:04:7a:1d:c6:c0:
                    c8:d8:5d:6f:39:9a:2d:41:25:2c:8c:19:3f:2c:a2:
                    34:2d
                Exponent: 65537 (0x10001)
        X509v3 extensions:
            X509v3 Basic Constraints: 
                CA:FALSE
            X509v3 Subject Key Identifier: 
                15:9F:92:22:38:7E:16:F0:B5:38:26:B6:3A:28:98:BA:B8:2D:20:34
            X509v3 Authority Key Identifier: 
                DirName:/C=BA/ST=Republika Srpska/L=Banja Luka/OU=Katedra za racunarstvo i informatiku/CN=CA
                serial:01

    Signature Algorithm: sha256WithRSAEncryption
         4d:6b:bd:20:0e:e7:ce:3b:21:d6:1b:cd:ac:e0:3e:1a:43:74:
         16:7f:23:b8:fe:10:dd:6b:27:88:73:b5:97:80:87:a3:e9:8c:
         30:72:26:cf:f0:13:c5:83:14:3d:8b:d0:55:34:29:77:fd:78:
         2c:fc:a7:68:af:94:32:b1:4a:e9:79:04:76:a3:04:4c:5a:d1:
         a3:31:24:32:ee:7a:d3:0c:d6:cb:8a:33:91:63:16:da:95:67:
         2c:ea:cd:d2:ab:67:e3:76:9f:46:84:cf:fc:47:94:51:e9:01:
         ce:c0:80:6a:7a:aa:bd:04:5b:36:5a:c5:a2:53:57:ca:59:7e:
         9e:e7:72:d4:d8:5d:d8:2c:8e:85:af:ad:80:fd:bc:2f:c6:ea:
         3d:42:e7:16:ca:fe:5e:66:f7:8c:87:f9:88:9a:cb:a8:a8:fe:
         12:ed:0e:55:0e:2e:f7:dd:b1:ad:0a:02:88:be:e0:b5:5e:0d:
         28:d7:5e:61:8f:fa:f6:11:25:05:d7:5b:d6:1a:6b:cf:44:48:
         32:f8:b2:5f:fe:76:bd:ce:b2:7e:28:b4:0f:b1:ba:42:18:74:
         bd:98:cf:83:61:06:72:41:c4:24:16:f8:e9:e7:13:7d:7c:b7:
         88:68:e8:20:e7:06:eb:5e:0e:8a:41:be:42:08:de:36:07:3d:
         98:48:06:2d
-----BEGIN CERTIFICATE-----
MIIEBDCCAuygAwIBAgIBBDANBgkqhkiG9w0BAQsFADB5MQswCQYDVQQGEwJCQTEZ
MBcGA1UECBMQUmVwdWJsaWthIFNycHNrYTETMBEGA1UEBxMKQmFuamEgTHVrYTEt
MCsGA1UECxMkS2F0ZWRyYSB6YSByYWN1bmFyc3R2byBpIGluZm9ybWF0aWt1MQsw
CQYDVQQDEwJDQTAeFw0xODA2MDgwMDMzMDBaFw0xODEyMDgwMDMzMDBaMFIxCzAJ
BgNVBAYTAkJBMQswCQYDVQQIEwJSUzELMAkGA1UEBxMCQkwxDDAKBgNVBAoTA0VU
RjEMMAoGA1UECxMDS1JJMQ0wCwYDVQQDEwRtdWpvMIIBIjANBgkqhkiG9w0BAQEF
AAOCAQ8AMIIBCgKCAQEArNL+Ub7NWWKkiW/Lh1I3NArsej4DYUB/Wq1krkZR1CEW
drFiQV/45dke7Rr3XHQL4Yl3meccxrSSTiOGEC+M4Elt8E8UxW73rvf8jz5S8E1O
V61P7QxYZZTLrhNfzAznLsN8aOHdc5MeSsoUMsxvYgqWrPJPNGIzSXneNQL5pe1Z
ocvBr5SdLkny60l0gnhv1e7QfJbnEq4ll9S5qhiKoNcOuLUYsuhZsJTWvFWtt/hC
6Dvlf3rNviGPBVcBGB4yHahwbUgUqShPV825gANreMVZAIiRYHt22WUlQyjXY5jd
d7e5tTgUx9gqBHodxsDI2F1vOZotQSUsjBk/LKI0LQIDAQABo4G9MIG6MAkGA1Ud
EwQCMAAwHQYDVR0OBBYEFBWfkiI4fhbwtTgmtjoomLq4LSA0MIGNBgNVHSMEgYUw
gYKhfaR7MHkxCzAJBgNVBAYTAkJBMRkwFwYDVQQIExBSZXB1Ymxpa2EgU3Jwc2th
MRMwEQYDVQQHEwpCYW5qYSBMdWthMS0wKwYDVQQLEyRLYXRlZHJhIHphIHJhY3Vu
YXJzdHZvIGkgaW5mb3JtYXRpa3UxCzAJBgNVBAMTAkNBggEBMA0GCSqGSIb3DQEB
CwUAA4IBAQBNa70gDufOOyHWG82s4D4aQ3QWfyO4/hDdayeIc7WXgIej6YwwcibP
8BPFgxQ9i9BVNCl3/Xgs/Kdor5QysUrpeQR2owRMWtGjMSQy7nrTDNbLijORYxba
lWcs6s3Sq2fjdp9GhM/8R5RR6QHOwIBqeqq9BFs2WsWiU1fKWX6e53LU2F3YLI6F
r62A/bwvxuo9QucWyv5eZveMh/mImsuoqP4S7Q5VDi733bGtCgKIvuC1Xg0o115h
j/r2ESUF11vWGmvPREgy+LJf/na9zrJ+KLQPsbpCGHS9mM+DYQZyQcQkFvjp5xN9
fLeIaOgg5wbrXg6KQb5CCN42Bz2YSAYt
-----END CERTIFICATE-----
